; ModuleID = '38/1463.c'
source_filename = "38/1463.c"
target datalayout = "e-m:e-p270:32:32-p271:32:32-p272:64:64-i64:64-f80:128-n8:16:32:64-S128"
target triple = "x86_64-pc-linux-gnu"

@.str = private unnamed_addr constant [3 x i8] c"%d\00", align 1
@.str.1 = private unnamed_addr constant [4 x i8] c"%lf\00", align 1
@.str.2 = private unnamed_addr constant [6 x i8] c"%.5f\0A\00", align 1

; Function Attrs: noinline nounwind uwtable
define dso_local void @main() #0 {
  %1 = alloca i32, align 4
  %2 = alloca i32, align 4
  %3 = alloca i32, align 4
  %4 = alloca i32, align 4
  %5 = alloca double*, align 8
  %6 = alloca double*, align 8
  %7 = alloca double, align 8
  %8 = alloca double, align 8
  %9 = alloca double, align 8
  %10 = alloca double, align 8
  %11 = alloca double, align 8
  %12 = alloca [1000 x double], align 16
  %13 = call i32 (i8*, ...) @__isoc99_scanf(i8* getelementptr inbounds ([3 x i8], [3 x i8]* @.str, i64 0, i64 0), i32* %1)
  store i32 1, i32* %3, align 4
  br label %14

14:                                               ; preds = %74, %0
  %15 = load i32, i32* %3, align 4
  %16 = load i32, i32* %1, align 4
  %17 = icmp sle i32 %15, %16
  br i1 %17, label %18, label %77

18:                                               ; preds = %14
  %19 = getelementptr inbounds [1000 x double], [1000 x double]* %12, i64 0, i64 0
  store double* %19, double** %5, align 8
  store double 0.000000e+00, double* %8, align 8
  store double 0.000000e+00, double* %9, align 8
  %20 = call i32 (i8*, ...) @__isoc99_scanf(i8* getelementptr inbounds ([3 x i8], [3 x i8]* @.str, i64 0, i64 0), i32* %2)
  store i32 1, i32* %4, align 4
  br label %21

21:                                               ; preds = %32, %18
  %22 = load i32, i32* %4, align 4
  %23 = load i32, i32* %2, align 4
  %24 = icmp sle i32 %22, %23
  br i1 %24, label %25, label %37

25:                                               ; preds = %21
  %26 = load double*, double** %5, align 8
  %27 = call i32 (i8*, ...) @__isoc99_scanf(i8* getelementptr inbounds ([4 x i8], [4 x i8]* @.str.1, i64 0, i64 0), double* %26)
  %28 = load double*, double** %5, align 8
  %29 = load double, double* %28, align 8
  %30 = load double, double* %8, align 8
  %31 = fadd double %30, %29
  store double %31, double* %8, align 8
  br label %32

32:                                               ; preds = %25
  %33 = load i32, i32* %4, align 4
  %34 = add nsw i32 %33, 1
  store i32 %34, i32* %4, align 4
  %35 = load double*, double** %5, align 8
  %36 = getelementptr inbounds double, double* %35, i32 1
  store double* %36, double** %5, align 8
  br label %21

37:                                               ; preds = %21
  %38 = load double, double* %8, align 8
  %39 = load i32, i32* %2, align 4
  %40 = sitofp i32 %39 to double
  %41 = fdiv double %38, %40
  store double %41, double* %11, align 8
  %42 = getelementptr inbounds [1000 x double], [1000 x double]* %12, i64 0, i64 0
  store double* %42, double** %5, align 8
  %43 = load double*, double** %5, align 8
  store double* %43, double** %6, align 8
  br label %44

44:                                               ; preds = %63, %37
  %45 = load double*, double** %6, align 8
  %46 = load double*, double** %5, align 8
  %47 = load i32, i32* %2, align 4
  %48 = sext i32 %47 to i64
  %49 = getelementptr inbounds double, double* %46, i64 %48
  %50 = icmp ne double* %45, %49
  br i1 %50, label %51, label %66

51:                                               ; preds = %44
  %52 = load double*, double** %6, align 8
  %53 = load double, double* %52, align 8
  %54 = load double, double* %11, align 8
  %55 = fsub double %53, %54
  %56 = load double*, double** %6, align 8
  %57 = load double, double* %56, align 8
  %58 = load double, double* %11, align 8
  %59 = fsub double %57, %58
  %60 = fmul double %55, %59
  %61 = load double, double* %9, align 8
  %62 = fadd double %61, %60
  store double %62, double* %9, align 8
  br label %63

63:                                               ; preds = %51
  %64 = load double*, double** %6, align 8
  %65 = getelementptr inbounds double, double* %64, i32 1
  store double* %65, double** %6, align 8
  br label %44

66:                                               ; preds = %44
  %67 = load double, double* %9, align 8
  %68 = load i32, i32* %2, align 4
  %69 = sitofp i32 %68 to double
  %70 = fdiv double %67, %69
  %71 = call double @sqrt(double %70) #3
  store double %71, double* %10, align 8
  %72 = load double, double* %10, align 8
  %73 = call i32 (i8*, ...) @printf(i8* getelementptr inbounds ([6 x i8], [6 x i8]* @.str.2, i64 0, i64 0), double %72)
  br label %74

74:                                               ; preds = %66
  %75 = load i32, i32* %3, align 4
  %76 = add nsw i32 %75, 1
  store i32 %76, i32* %3, align 4
  br label %14

77:                                               ; preds = %14
  ret void
}

declare dso_local i32 @__isoc99_scanf(i8*, ...) #1

; Function Attrs: nounwind
declare dso_local double @sqrt(double) #2

declare dso_local i32 @printf(i8*, ...) #1


!llvm.module.flags = !{!0}
!llvm.ident = !{!1}

!0 = !{i32 1, !"wchar_size", i32 4}
!1 = !{!"clang version 10.0.0-4ubuntu1 "}
